target datalayout = "e-m:e-p270:32:32-p271:32:32-p272:64:64-i64:64-i128:128-f80:128-n8:16:32:64-S128"
target triple = "x86_64-unknown-linux-gnu"

%struct.asn1_const_ctx_st = type { ptr, i32, i32, i32, i32, i32, i64, ptr, ptr, ptr, i32 }

; Function Attrs: nounwind uwtable
define hidden i32 @asn1_GetSequence(ptr noundef %c, ptr noundef %length) #0 {
entry:
  %retval = alloca i32, align 4
  %c.addr = alloca ptr, align 8
  %length.addr = alloca ptr, align 8
  %q = alloca ptr, align 8
  store ptr %c, ptr %c.addr, align 8
  store ptr %length, ptr %length.addr, align 8
  %0 = load ptr, ptr %c.addr, align 8
  %p = getelementptr inbounds %struct.asn1_const_ctx_st, ptr %0, i32 0, i32 0
  %1 = load ptr, ptr %p, align 8
  store ptr %1, ptr %q, align 8
  %2 = load ptr, ptr %c.addr, align 8
  %p1 = getelementptr inbounds %struct.asn1_const_ctx_st, ptr %2, i32 0, i32 0
  %3 = load ptr, ptr %c.addr, align 8
  %slen = getelementptr inbounds %struct.asn1_const_ctx_st, ptr %3, i32 0, i32 6
  %4 = load ptr, ptr %c.addr, align 8
  %tag = getelementptr inbounds %struct.asn1_const_ctx_st, ptr %4, i32 0, i32 4
  %5 = load ptr, ptr %c.addr, align 8
  %xclass = getelementptr inbounds %struct.asn1_const_ctx_st, ptr %5, i32 0, i32 5
  %6 = load ptr, ptr %length.addr, align 8
  %7 = load i64, ptr %6, align 8
  %call = call i32 @ASN1_get_object(ptr noundef %p1, ptr noundef %slen, ptr noundef %tag, ptr noundef %xclass, i64 noundef %7)
  %8 = load ptr, ptr %c.addr, align 8
  %inf = getelementptr inbounds %struct.asn1_const_ctx_st, ptr %8, i32 0, i32 3
  store i32 %call, ptr %inf, align 8
  %9 = load ptr, ptr %c.addr, align 8
  %inf2 = getelementptr inbounds %struct.asn1_const_ctx_st, ptr %9, i32 0, i32 3
  %10 = load i32, ptr %inf2, align 8
  %and = and i32 %10, 128
  %tobool = icmp ne i32 %and, 0
  br i1 %tobool, label %if.then, label %if.end

if.then:                                          ; preds = %entry
  %11 = load ptr, ptr %c.addr, align 8
  %error = getelementptr inbounds %struct.asn1_const_ctx_st, ptr %11, i32 0, i32 2
  store i32 102, ptr %error, align 4
  store i32 0, ptr %retval, align 4
  br label %return

if.end:                                           ; preds = %entry
  %12 = load ptr, ptr %c.addr, align 8
  %tag3 = getelementptr inbounds %struct.asn1_const_ctx_st, ptr %12, i32 0, i32 4
  %13 = load i32, ptr %tag3, align 4
  %cmp = icmp ne i32 %13, 16
  br i1 %cmp, label %if.then4, label %if.end6

if.then4:                                         ; preds = %if.end
  %14 = load ptr, ptr %c.addr, align 8
  %error5 = getelementptr inbounds %struct.asn1_const_ctx_st, ptr %14, i32 0, i32 2
  store i32 114, ptr %error5, align 4
  store i32 0, ptr %retval, align 4
  br label %return

if.end6:                                          ; preds = %if.end
  %15 = load ptr, ptr %c.addr, align 8
  %p7 = getelementptr inbounds %struct.asn1_const_ctx_st, ptr %15, i32 0, i32 0
  %16 = load ptr, ptr %p7, align 8
  %17 = load ptr, ptr %q, align 8
  %sub.ptr.lhs.cast = ptrtoint ptr %16 to i64
  %sub.ptr.rhs.cast = ptrtoint ptr %17 to i64
  %sub.ptr.sub = sub i64 %sub.ptr.lhs.cast, %sub.ptr.rhs.cast
  %18 = load ptr, ptr %length.addr, align 8
  %19 = load i64, ptr %18, align 8
  %sub = sub nsw i64 %19, %sub.ptr.sub
  store i64 %sub, ptr %18, align 8
  %20 = load ptr, ptr %c.addr, align 8
  %max = getelementptr inbounds %struct.asn1_const_ctx_st, ptr %20, i32 0, i32 7
  %21 = load ptr, ptr %max, align 8
  %tobool8 = icmp ne ptr %21, null
  br i1 %tobool8, label %land.lhs.true, label %if.end12

land.lhs.true:                                    ; preds = %if.end6
  %22 = load ptr, ptr %length.addr, align 8
  %23 = load i64, ptr %22, align 8
  %cmp9 = icmp slt i64 %23, 0
  br i1 %cmp9, label %if.then10, label %if.end12

if.then10:                                        ; preds = %land.lhs.true
  %24 = load ptr, ptr %c.addr, align 8
  %error11 = getelementptr inbounds %struct.asn1_const_ctx_st, ptr %24, i32 0, i32 2
  store i32 100, ptr %error11, align 4
  store i32 0, ptr %retval, align 4
  br label %return

if.end12:                                         ; preds = %land.lhs.true, %if.end6
  %25 = load ptr, ptr %c.addr, align 8
  %inf13 = getelementptr inbounds %struct.asn1_const_ctx_st, ptr %25, i32 0, i32 3
  %26 = load i32, ptr %inf13, align 8
  %cmp14 = icmp eq i32 %26, 33
  br i1 %cmp14, label %if.then15, label %if.end21

if.then15:                                        ; preds = %if.end12
  %27 = load ptr, ptr %length.addr, align 8
  %28 = load i64, ptr %27, align 8
  %29 = load ptr, ptr %c.addr, align 8
  %pp = getelementptr inbounds %struct.asn1_const_ctx_st, ptr %29, i32 0, i32 9
  %30 = load ptr, ptr %pp, align 8
  %31 = load ptr, ptr %30, align 8
  %add.ptr = getelementptr inbounds i8, ptr %31, i64 %28
  %32 = load ptr, ptr %c.addr, align 8
  %p16 = getelementptr inbounds %struct.asn1_const_ctx_st, ptr %32, i32 0, i32 0
  %33 = load ptr, ptr %p16, align 8
  %sub.ptr.lhs.cast17 = ptrtoint ptr %add.ptr to i64
  %sub.ptr.rhs.cast18 = ptrtoint ptr %33 to i64
  %sub.ptr.sub19 = sub i64 %sub.ptr.lhs.cast17, %sub.ptr.rhs.cast18
  %34 = load ptr, ptr %c.addr, align 8
  %slen20 = getelementptr inbounds %struct.asn1_const_ctx_st, ptr %34, i32 0, i32 6
  store i64 %sub.ptr.sub19, ptr %slen20, align 8
  br label %if.end21

if.end21:                                         ; preds = %if.then15, %if.end12
  %35 = load ptr, ptr %c.addr, align 8
  %eos = getelementptr inbounds %struct.asn1_const_ctx_st, ptr %35, i32 0, i32 1
  store i32 0, ptr %eos, align 8
  store i32 1, ptr %retval, align 4
  br label %return

return:                                           ; preds = %if.end21, %if.then10, %if.then4, %if.then
  %36 = load i32, ptr %retval, align 4
  ret i32 %36
}