; Function Attrs: nounwind uwtable
define hidden range(i32 0, 2) i32 @asn1_GetSequence(ptr noundef captures(none) %c, ptr noundef captures(none) %length) local_unnamed_addr #1 {
entry:
  %0 = load ptr, ptr %c, align 8
  %slen = getelementptr inbounds nuw i8, ptr %c, i64 32
  %tag = getelementptr inbounds nuw i8, ptr %c, i64 20
  %xclass = getelementptr inbounds nuw i8, ptr %c, i64 24
  %1 = load i64, ptr %length, align 8
  %call = tail call i32 @ASN1_get_object(ptr noundef nonnull %c, ptr noundef nonnull %slen, ptr noundef nonnull %tag, ptr noundef nonnull %xclass, i64 noundef %1)
  %inf = getelementptr inbounds nuw i8, ptr %c, i64 16
  store i32 %call, ptr %inf, align 8
  %tobool.not = icmp samesign ult i32 %call, 128
  br i1 %tobool.not, label %if.end, label %if.then

if.then:                                          ; preds = %entry
  %error = getelementptr inbounds nuw i8, ptr %c, i64 12
  store i32 102, ptr %error, align 4
  br label %return

if.end:                                           ; preds = %entry
  %2 = load i32, ptr %tag, align 4
  %cmp.not = icmp eq i32 %2, 16
  br i1 %cmp.not, label %if.end6, label %if.then4

if.then4:                                         ; preds = %if.end
  %error5 = getelementptr inbounds nuw i8, ptr %c, i64 12
  store i32 114, ptr %error5, align 4
  br label %return

if.end6:                                          ; preds = %if.end
  %3 = load ptr, ptr %c, align 8
  %sub.ptr.lhs.cast = ptrtoint ptr %3 to i64
  %sub.ptr.rhs.cast = ptrtoint ptr %0 to i64
  %sub.ptr.sub.neg = sub i64 %sub.ptr.rhs.cast, %sub.ptr.lhs.cast
  %4 = load i64, ptr %length, align 8
  %sub = add i64 %sub.ptr.sub.neg, %4
  store i64 %sub, ptr %length, align 8
  %max = getelementptr inbounds nuw i8, ptr %c, i64 40
  %5 = load ptr, ptr %max, align 8
  %tobool8.not = icmp ne ptr %5, null
  %cmp9 = icmp slt i64 %sub, 0
  %or.cond = select i1 %tobool8.not, i1 %cmp9, i1 false
  br i1 %or.cond, label %if.then10, label %if.end12

if.then10:                                        ; preds = %if.end6
  %error11 = getelementptr inbounds nuw i8, ptr %c, i64 12
  store i32 100, ptr %error11, align 4
  br label %return

if.end12:                                         ; preds = %if.end6
  %6 = load i32, ptr %inf, align 8
  %cmp14 = icmp eq i32 %6, 33
  br i1 %cmp14, label %if.then15, label %if.end21

if.then15:                                        ; preds = %if.end12
  %pp = getelementptr inbounds nuw i8, ptr %c, i64 56
  %7 = load ptr, ptr %pp, align 8
  %8 = load ptr, ptr %7, align 8
  %add.ptr = getelementptr inbounds i8, ptr %8, i64 %sub
  %9 = load ptr, ptr %c, align 8
  %sub.ptr.lhs.cast17 = ptrtoint ptr %add.ptr to i64
  %sub.ptr.rhs.cast18 = ptrtoint ptr %9 to i64
  %sub.ptr.sub19 = sub i64 %sub.ptr.lhs.cast17, %sub.ptr.rhs.cast18
  store i64 %sub.ptr.sub19, ptr %slen, align 8
  br label %if.end21

if.end21:                                         ; preds = %if.then15, %if.end12
  %eos = getelementptr inbounds nuw i8, ptr %c, i64 8
  store i32 0, ptr %eos, align 8
  br label %return

return:                                           ; preds = %if.end21, %if.then10, %if.then4, %if.then
  %retval.0 = phi i32 [ 0, %if.then ], [ 0, %if.then4 ], [ 0, %if.then10 ], [ 1, %if.end21 ]
  ret i32 %retval.0
}